target datalayout = "e-m:e-p270:32:32-p271:32:32-p272:64:64-i64:64-i128:128-f80:128-n8:16:32:64-S128"
target triple = "x86_64-pc-linux-gnu"

%struct.BuildTarget = type { i32, ptr, ptr, ptr, ptr, ptr, ptr, ptr, ptr, ptr, ptr, ptr, ptr, ptr, ptr, ptr, ptr, ptr, ptr, i8, i8, i8, i8, i8, i8, i8, i8, i8, i8, i8, i8, i8, i8, i8, i8, i8, i8, i8, i8, i32, i32, i32, i32, i32, i32, i32, i32, i32, i32, i32, i32, i32, i32, i32, i32, i32, i32, ptr, ptr, ptr, ptr, ptr, ptr, ptr, ptr, ptr, ptr, %struct.anon.86, %struct.anon.87, %struct.anon.88, %struct.anon.89 }
%struct.anon.86 = type { i16, i32, i32, i32 }
%struct.anon.87 = type { ptr, ptr, ptr, ptr }
%struct.anon.88 = type { ptr, ptr, i32, i8 }
%struct.anon.89 = type { ptr, ptr }
%struct.PlatformTarget = type { ptr, i32, ptr, ptr, i32, i32, i32, i32, i32, i32, i32, [7 x %struct.AlignData], [7 x %struct.AlignData], [7 x %struct.AlignData], i32, i16, %union.anon.97, i8, i8, i8, i8, i8, i8, i8, i8, i8, i8, %struct.AlignData, i32, i32, i32, i32, i32, i32, i32, i32, i32, i32, i32, i32, i32, i32, i32, i32, ptr }
%union.anon.97 = type { %struct.anon.99 }
%struct.anon.99 = type { %struct.X86Features, i32, i32 }
%struct.X86Features = type { [2 x i64], ptr }
%struct.AlignData = type { i32, i32 }
%union.SourceSpan = type { i64 }
%struct.Vmem = type { ptr, i64, i64 }
%struct.GenContext_ = type { i8, ptr, ptr, ptr, ptr, ptr, ptr, ptr, ptr, ptr, ptr, ptr, ptr, ptr, ptr, ptr, ptr, ptr, ptr, ptr, ptr, ptr, ptr, ptr, ptr, ptr, ptr, ptr, ptr, ptr, ptr, ptr, ptr, %struct.anon.85, i32, i32, %struct.DebugContext, ptr, ptr, ptr, %struct.BEValue, i8, %union.SourceSpan, ptr, ptr, ptr, ptr }
%struct.anon.85 = type { ptr, ptr, ptr }
%struct.DebugContext = type { i16, ptr, ptr, %struct.DebugFile_, ptr, ptr, ptr, ptr }
%struct.DebugFile_ = type { i16, ptr }
%struct.BEValue = type { i8, i32, ptr, ptr, ptr }
%struct.Decl_ = type { ptr, ptr, %union.SourceSpan, i64, %union.anon, i32, %union.anon.0, i64, ptr, ptr, ptr, %union.anon.1 }
%union.anon = type { ptr }
%union.anon.0 = type { i16 }
%union.anon.1 = type { %struct.FuncDecl }
%struct.FuncDecl = type { i32, [4 x i8], %struct.Signature_, i32, i32, %union.anon.8 }
%struct.Signature_ = type <{ %struct.CalleeAttributes, i16, i8, i32, i32, [4 x i8], ptr }>
%struct.CalleeAttributes = type { i8 }
%union.anon.8 = type { %struct.anon.9 }
%struct.anon.9 = type { i16, %union.anon.10 }
%union.anon.10 = type { ptr }
%struct.VarDecl_ = type { i32, i32, %union.anon.14, %union.anon.15 }
%union.anon.14 = type { ptr }
%union.anon.15 = type { %struct.anon.16 }
%struct.anon.16 = type { ptr, %union.SourceSpan }
%struct.DefineDecl = type { i8, %union.anon.4 }
%union.anon.4 = type { %struct.anon.5 }
%struct.anon.5 = type { %union.anon.6, ptr }
%union.anon.6 = type { %struct.anon.7 }
%struct.anon.7 = type { ptr, ptr, %union.SourceSpan }
%struct.EnumConstantDecl = type { ptr, i32, i32 }

@active_target = external global %struct.BuildTarget, align 8
@.str.8 = private unnamed_addr constant [36 x i8] c"FATAL ERROR %s -> in %s @ in %s:%d \00", align 1
@.str.9 = private unnamed_addr constant [22 x i8] c"Should be unreachable\00", align 1
@.str.10 = private unnamed_addr constant [113 x i8] c"generated/home/dtcxzyw/WorkSpace/Projects/compilers/llvm-opt-benchmark/bench/c3c/c3c/src/compiler/llvm_codegen.c\00", align 1
@platform_target = external global %struct.PlatformTarget, align 8
@__func__.llvm_get_ref = private unnamed_addr constant [13 x i8] c"llvm_get_ref\00", align 1
@kw_main = external global ptr, align 8
@kw_mainstub = external global ptr, align 8
@decl_arena = external global %struct.Vmem, align 8

; Function Attrs: nounwind uwtable
define internal ptr @declptr(i32 noundef %0) #0 {
  %2 = alloca i32, align 4
  store i32 %0, ptr %2, align 4
  %3 = load ptr, ptr @decl_arena, align 8
  %4 = load i32, ptr %2, align 4
  %5 = zext i32 %4 to i64
  %6 = getelementptr inbounds %struct.Decl_, ptr %3, i64 %5
  ret ptr %6
}

; Function Attrs: nounwind uwtable
define dso_local void @llvm_set_internal_linkage(ptr noundef %0) #0 {
  %2 = alloca ptr, align 8
  store ptr %0, ptr %2, align 8
  %3 = load ptr, ptr %2, align 8
  call void @LLVMSetLinkage(ptr noundef %3, i32 noundef 8)
  %4 = load ptr, ptr %2, align 8
  call void @LLVMSetVisibility(ptr noundef %4, i32 noundef 0)
  ret void
}

; Function Attrs: nounwind uwtable
define dso_local ptr @llvm_get_ref(ptr noundef %0, ptr noundef %1) #0 {
  %3 = alloca ptr, align 8
  %4 = alloca ptr, align 8
  %5 = alloca ptr, align 8
  %6 = alloca ptr, align 8
  %7 = alloca ptr, align 8
  store ptr %0, ptr %5, align 8
  store ptr %1, ptr %6, align 8
  %8 = load ptr, ptr %6, align 8
  %9 = getelementptr inbounds %struct.Decl_, ptr %8, i32 0, i32 4
  %10 = load ptr, ptr %9, align 8
  store ptr %10, ptr %7, align 8
  %11 = load ptr, ptr %7, align 8
  %12 = icmp ne ptr %11, null
  br i1 %12, label %13, label %27

13:                                               ; preds = %2
  %14 = load ptr, ptr %7, align 8
  %15 = call ptr @LLVMIsAGlobalValue(ptr noundef %14)
  %16 = icmp ne ptr %15, null
  br i1 %16, label %17, label %24

17:                                               ; preds = %13
  %18 = load ptr, ptr %7, align 8
  %19 = call ptr @LLVMGetGlobalParent(ptr noundef %18)
  %20 = load ptr, ptr %5, align 8
  %21 = getelementptr inbounds %struct.GenContext_, ptr %20, i32 0, i32 1
  %22 = load ptr, ptr %21, align 8
  %23 = icmp eq ptr %19, %22
  br i1 %23, label %24, label %26

24:                                               ; preds = %17, %13
  %25 = load ptr, ptr %7, align 8
  store ptr %25, ptr %4, align 8
  br label %172

26:                                               ; preds = %17
  br label %27

27:                                               ; preds = %26, %2
  %28 = load ptr, ptr %6, align 8
  %29 = getelementptr inbounds %struct.Decl_, ptr %28, i32 0, i32 3
  %30 = load i64, ptr %29, align 8
  %31 = and i64 %30, 127
  %32 = trunc i64 %31 to i32
  switch i32 %32, label %170 [
    i32 13, label %33
    i32 16, label %33
    i32 26, label %36
    i32 17, label %74
    i32 9, label %141
    i32 15, label %148
    i32 0, label %167
    i32 1, label %167
    i32 2, label %167
    i32 4, label %167
    i32 10, label %167
    i32 11, label %167
    i32 12, label %167
    i32 14, label %167
    i32 19, label %167
    i32 20, label %167
    i32 21, label %167
    i32 23, label %167
    i32 24, label %167
    i32 25, label %167
    i32 8, label %167
    i32 3, label %167
    i32 5, label %167
    i32 6, label %167
    i32 7, label %167
    i32 18, label %167
    i32 22, label %167
  ]

33:                                               ; preds = %27, %27
  br label %34

34:                                               ; preds = %33
  call void (ptr, ...) @error_exit(ptr noundef @.str.8, ptr noundef @.str.9, ptr noundef @__func__.llvm_get_ref, ptr noundef @.str.10, i32 noundef 1135) #9
  unreachable

35:                                               ; No predecessors!
  br label %36

36:                                               ; preds = %35, %27
  %37 = load ptr, ptr %6, align 8
  %38 = getelementptr inbounds %struct.Decl_, ptr %37, i32 0, i32 11
  %39 = load i32, ptr %38, align 8
  %40 = and i32 %39, 255
  %41 = icmp eq i32 %40, 8
  br i1 %41, label %42, label %51

42:                                               ; preds = %36
  %43 = load ptr, ptr %5, align 8
  %44 = load ptr, ptr %6, align 8
  %45 = getelementptr inbounds %struct.Decl_, ptr %44, i32 0, i32 11
  %46 = getelementptr inbounds %struct.VarDecl_, ptr %45, i32 0, i32 2
  %47 = load ptr, ptr %46, align 8
  %48 = call ptr @llvm_get_ref(ptr noundef %43, ptr noundef %47)
  %49 = load ptr, ptr %6, align 8
  %50 = getelementptr inbounds %struct.Decl_, ptr %49, i32 0, i32 4
  store ptr %48, ptr %50, align 8
  store ptr %48, ptr %4, align 8
  br label %172

51:                                               ; preds = %36
  %52 = load ptr, ptr %5, align 8
  %53 = load ptr, ptr %6, align 8
  call void @llvm_add_global_decl(ptr noundef %52, ptr noundef %53)
  %54 = load ptr, ptr %6, align 8
  %55 = getelementptr inbounds %struct.Decl_, ptr %54, i32 0, i32 3
  %56 = load i64, ptr %55, align 8
  %57 = lshr i64 %56, 28
  %58 = and i64 %57, 1
  %59 = trunc i64 %58 to i1
  br i1 %59, label %60, label %70

60:                                               ; preds = %51
  %61 = load i32, ptr getelementptr inbounds (%struct.PlatformTarget, ptr @platform_target, i32 0, i32 5), align 4
  %62 = icmp eq i32 %61, 15
  br i1 %62, label %63, label %70

63:                                               ; preds = %60
  %64 = load ptr, ptr getelementptr inbounds (%struct.BuildTarget, ptr @active_target, i32 0, i32 69, i32 1), align 8
  %65 = icmp ne ptr %64, null
  br i1 %65, label %70, label %66

66:                                               ; preds = %63
  %67 = load ptr, ptr %6, align 8
  %68 = getelementptr inbounds %struct.Decl_, ptr %67, i32 0, i32 4
  %69 = load ptr, ptr %68, align 8
  call void @LLVMSetDLLStorageClass(ptr noundef %69, i32 noundef 2)
  br label %70

70:                                               ; preds = %66, %63, %60, %51
  %71 = load ptr, ptr %6, align 8
  %72 = getelementptr inbounds %struct.Decl_, ptr %71, i32 0, i32 4
  %73 = load ptr, ptr %72, align 8
  store ptr %73, ptr %4, align 8
  br label %172

74:                                               ; preds = %27
  %75 = load ptr, ptr %6, align 8
  %76 = getelementptr inbounds %struct.Decl_, ptr %75, i32 0, i32 11
  %77 = getelementptr inbounds %struct.FuncDecl, ptr %76, i32 0, i32 5
  %78 = load i16, ptr %77, align 8
  %79 = lshr i16 %78, 10
  %80 = and i16 %79, 1
  %81 = trunc i16 %80 to i1
  br i1 %81, label %82, label %90

82:                                               ; preds = %74
  %83 = load ptr, ptr %5, align 8
  %84 = load ptr, ptr %6, align 8
  %85 = getelementptr inbounds %struct.Decl_, ptr %84, i32 0, i32 0
  %86 = load ptr, ptr %85, align 8
  %87 = call ptr @llvm_get_selector(ptr noundef %83, ptr noundef %86)
  %88 = load ptr, ptr %6, align 8
  %89 = getelementptr inbounds %struct.Decl_, ptr %88, i32 0, i32 4
  store ptr %87, ptr %89, align 8
  store ptr %87, ptr %4, align 8
  br label %172

90:                                               ; preds = %74
  %91 = load ptr, ptr %5, align 8
  %92 = getelementptr inbounds %struct.GenContext_, ptr %91, i32 0, i32 1
  %93 = load ptr, ptr %92, align 8
  %94 = load ptr, ptr %6, align 8
  store ptr %94, ptr %3, align 8
  %95 = load ptr, ptr %3, align 8
  %96 = getelementptr inbounds %struct.Decl_, ptr %95, i32 0, i32 1
  %97 = load ptr, ptr %96, align 8
  %98 = load ptr, ptr %5, align 8
  %99 = load ptr, ptr %6, align 8
  %100 = getelementptr inbounds %struct.Decl_, ptr %99, i32 0, i32 10
  %101 = load ptr, ptr %100, align 8
  %102 = call ptr @llvm_get_type(ptr noundef %98, ptr noundef %101)
  %103 = call ptr @LLVMAddFunction(ptr noundef %93, ptr noundef %97, ptr noundef %102)
  %104 = load ptr, ptr %6, align 8
  %105 = getelementptr inbounds %struct.Decl_, ptr %104, i32 0, i32 4
  store ptr %103, ptr %105, align 8
  store ptr %103, ptr %7, align 8
  %106 = load ptr, ptr %5, align 8
  %107 = load ptr, ptr %6, align 8
  call void @llvm_append_function_attributes(ptr noundef %106, ptr noundef %107)
  %108 = load ptr, ptr %6, align 8
  %109 = getelementptr inbounds %struct.Decl_, ptr %108, i32 0, i32 3
  %110 = load i64, ptr %109, align 8
  %111 = lshr i64 %110, 28
  %112 = and i64 %111, 1
  %113 = trunc i64 %112 to i1
  br i1 %113, label %114, label %134

114:                                              ; preds = %90
  %115 = load i32, ptr getelementptr inbounds (%struct.PlatformTarget, ptr @platform_target, i32 0, i32 5), align 4
  %116 = icmp eq i32 %115, 15
  br i1 %116, label %117, label %134

117:                                              ; preds = %114
  %118 = load ptr, ptr getelementptr inbounds (%struct.BuildTarget, ptr @active_target, i32 0, i32 69, i32 1), align 8
  %119 = icmp ne ptr %118, null
  br i1 %119, label %134, label %120

120:                                              ; preds = %117
  %121 = load ptr, ptr %6, align 8
  %122 = getelementptr inbounds %struct.Decl_, ptr %121, i32 0, i32 0
  %123 = load ptr, ptr %122, align 8
  %124 = load ptr, ptr @kw_main, align 8
  %125 = icmp ne ptr %123, %124
  br i1 %125, label %126, label %134

126:                                              ; preds = %120
  %127 = load ptr, ptr %6, align 8
  %128 = getelementptr inbounds %struct.Decl_, ptr %127, i32 0, i32 0
  %129 = load ptr, ptr %128, align 8
  %130 = load ptr, ptr @kw_mainstub, align 8
  %131 = icmp ne ptr %129, %130
  br i1 %131, label %132, label %134

132:                                              ; preds = %126
  %133 = load ptr, ptr %7, align 8
  call void @LLVMSetDLLStorageClass(ptr noundef %133, i32 noundef 2)
  br label %134

134:                                              ; preds = %132, %126, %120, %117, %114, %90
  %135 = load ptr, ptr %6, align 8
  %136 = call zeroext i1 @decl_is_local(ptr noundef %135)
  br i1 %136, label %137, label %139

137:                                              ; preds = %134
  %138 = load ptr, ptr %7, align 8
  call void @llvm_set_internal_linkage(ptr noundef %138)
  br label %139

139:                                              ; preds = %137, %134
  %140 = load ptr, ptr %7, align 8
  store ptr %140, ptr %4, align 8
  br label %172

141:                                              ; preds = %27
  %142 = load ptr, ptr %5, align 8
  %143 = load ptr, ptr %6, align 8
  %144 = getelementptr inbounds %struct.Decl_, ptr %143, i32 0, i32 11
  %145 = getelementptr inbounds %struct.DefineDecl, ptr %144, i32 0, i32 1
  %146 = load ptr, ptr %145, align 8
  %147 = call ptr @llvm_get_ref(ptr noundef %142, ptr noundef %146)
  store ptr %147, ptr %4, align 8
  br label %172

148:                                              ; preds = %27
  %149 = load ptr, ptr %6, align 8
  %150 = getelementptr inbounds %struct.Decl_, ptr %149, i32 0, i32 4
  %151 = load ptr, ptr %150, align 8
  %152 = icmp ne ptr %151, null
  br i1 %152, label %163, label %153

153:                                              ; preds = %148
  %154 = load ptr, ptr %5, align 8
  %155 = load ptr, ptr %6, align 8
  %156 = getelementptr inbounds %struct.Decl_, ptr %155, i32 0, i32 11
  %157 = getelementptr inbounds %struct.EnumConstantDecl, ptr %156, i32 0, i32 2
  %158 = load i32, ptr %157, align 4
  %159 = call ptr @declptr(i32 noundef %158)
  %160 = getelementptr inbounds %struct.Decl_, ptr %159, i32 0, i32 10
  %161 = load ptr, ptr %160, align 8
  %162 = call ptr @llvm_get_typeid(ptr noundef %154, ptr noundef %161)
  br label %163

163:                                              ; preds = %153, %148
  %164 = load ptr, ptr %6, align 8
  %165 = getelementptr inbounds %struct.Decl_, ptr %164, i32 0, i32 4
  %166 = load ptr, ptr %165, align 8
  store ptr %166, ptr %4, align 8
  br label %172

167:                                              ; preds = %27, %27, %27, %27, %27, %27, %27, %27, %27, %27, %27, %27, %27, %27, %27, %27, %27, %27, %27, %27, %27
  br label %168

168:                                              ; preds = %167
  call void (ptr, ...) @error_exit(ptr noundef @.str.8, ptr noundef @.str.9, ptr noundef @__func__.llvm_get_ref, ptr noundef @.str.10, i32 noundef 1195) #9
  unreachable

169:                                              ; No predecessors!
  br label %170

170:                                              ; preds = %169, %27
  br label %171

171:                                              ; preds = %170
  call void (ptr, ...) @error_exit(ptr noundef @.str.8, ptr noundef @.str.9, ptr noundef @__func__.llvm_get_ref, ptr noundef @.str.10, i32 noundef 1197) #9
  unreachable

172:                                              ; preds = %163, %141, %139, %82, %70, %42, %24
  %173 = load ptr, ptr %4, align 8
  ret ptr %173
}